(dp0
S'instructions'
p1
(lp2
(i__main__
Instruction
p3
(dp4
S'pc'
p5
I8
sS'iType'
p6
S'J'
p7
sS'addr'
p8
I12
sS'op'
p9
I2
sba(i__main__
Instruction
p10
(dp11
S'rt'
p12
I0
sS'shamt'
p13
I0
sg6
S'R'
p14
sS'rs'
p15
I1
sS'funct'
p16
I32
sS'rd'
p17
I1
sg5
I12
sg9
I0
sbas.