(dp0
S'funcs'
p1
(dp2
S'@main'
p3
I0
sS'@input'
p4
I24
sS'@mean'
p5
I72
sS'@stddev'
p6
I120
ssS'instructions'
p7
(lp8
(i__main__
Instruction
p9
(dp10
S'pc'
p11
I0
sS'iType'
p12
S'J'
p13
sS'addr'
p14
I24
sS'op'
p15
I2
sba(i__main__
Instruction
p16
(dp17
g11
I4
sg12
g13
sg14
I72
sg15
I2
sba(i__main__
Instruction
p18
(dp19
S'rt'
p20
I7
sg12
S'I'
p21
sg14
I0
sS'rs'
p22
I7
sg11
I8
sg15
I12
sba(i__main__
Instruction
p23
(dp24
g20
I7
sg12
g21
sg14
I0
sg22
I1
sg11
I12
sg15
I8
sba(i__main__
Instruction
p25
(dp26
g11
I16
sg12
g13
sg14
I120
sg15
I2
sba(i__main__
Instruction
p27
(dp28
g20
I0
sg12
g21
sg14
I0
sg22
I0
sg11
I20
sg15
I44
sba(i__main__
Instruction
p29
(dp30
g20
I0
sg12
g21
sg14
I2
sg22
I0
sg11
I24
sg15
I44
sba(i__main__
Instruction
p31
(dp32
g20
I5
sg12
g21
sg14
I0
sg22
I5
sg11
I28
sg15
I12
sba(i__main__
Instruction
p33
(dp34
g20
I3
sg12
g21
sg14
I0
sg22
I3
sg11
I32
sg15
I12
sba(i__main__
Instruction
p35
(dp36
g20
I5
sg12
g21
sg14
I0
sg22
I1
sg11
I36
sg15
I8
sba(i__main__
Instruction
p37
(dp38
g20
I4
sg12
g21
sg14
I0
sg22
I4
sg11
I40
sg15
I12
sba(i__main__
Instruction
p39
(dp40
g20
I4
sg12
g21
sg14
I0
sg22
I29
sg11
I44
sg15
I8
sba(i__main__
Instruction
p41
(dp42
g20
I0
sg12
g21
sg14
I2
sg22
I0
sg11
I48
sg15
I44
sba(i__main__
Instruction
p43
(dp44
g20
I3
sS'shamt'
p45
I0
sg12
S'R'
p46
sg22
I4
sS'funct'
p47
I34
sS'rd'
p48
I4
sg11
I52
sg15
I0
sba(i__main__
Instruction
p49
(dp50
g20
I4
sg12
g21
sg14
I0
sg22
I1
sg11
I56
sg15
I43
sba(i__main__
Instruction
p51
(dp52
g20
I3
sg12
g21
sg14
I1
sg22
I3
sg11
I60
sg15
I8
sba(i__main__
Instruction
p53
(dp54
g20
I3
sg12
g21
sg14
I4
sg22
I5
sg11
I64
sg15
I4
sba(i__main__
Instruction
p55
(dp56
g11
I68
sg12
g13
sg14
I48
sg15
I2
sba(i__main__
Instruction
p57
(dp58
g20
I3
sg12
g21
sg14
I0
sg22
I3
sg11
I72
sg15
I12
sba(i__main__
Instruction
p59
(dp60
g20
I4
sg12
g21
sg14
I0
sg22
I4
sg11
I76
sg15
I12
sba(i__main__
Instruction
p61
(dp62
g20
I4
sg12
g21
sg14
I0
sg22
I29
sg11
I80
sg15
I8
sba(i__main__
Instruction
p63
(dp64
g20
I1
sg12
g21
sg14
I0
sg22
I1
sg11
I84
sg15
I12
sba(i__main__
Instruction
p65
(dp66
g20
I3
sg45
I0
sg12
g46
sg22
I4
sg47
I34
sg48
I4
sg11
I88
sg15
I0
sba(i__main__
Instruction
p67
(dp68
g20
I4
sg12
g21
sg14
I0
sg22
I6
sg11
I92
sg15
I35
sba(i__main__
Instruction
p69
(dp70
g20
I6
sg45
I0
sg12
g46
sg22
I1
sg47
I32
sg48
I1
sg11
I96
sg15
I0
sba(i__main__
Instruction
p71
(dp72
g20
I3
sg12
g21
sg14
I1
sg22
I3
sg11
I100
sg15
I8
sba(i__main__
Instruction
p73
(dp74
g20
I3
sg12
g21
sg14
I112
sg22
I5
sg11
I104
sg15
I4
sba(i__main__
Instruction
p75
(dp76
g11
I108
sg12
g13
sg14
I88
sg15
I2
sba(i__main__
Instruction
p77
(dp78
g20
I5
sg45
I0
sg12
g46
sg22
I1
sg47
I35
sg48
I1
sg11
I112
sg15
I0
sba(i__main__
Instruction
p79
(dp80
g11
I116
sg12
g13
sg14
I8
sg15
I2
sba(i__main__
Instruction
p81
(dp82
g20
I3
sg12
g21
sg14
I0
sg22
I3
sg11
I120
sg15
I12
sba(i__main__
Instruction
p83
(dp84
g20
I4
sg12
g21
sg14
I0
sg22
I4
sg11
I124
sg15
I12
sba(i__main__
Instruction
p85
(dp86
g20
I4
sg12
g21
sg14
I0
sg22
I29
sg11
I128
sg15
I8
sba(i__main__
Instruction
p87
(dp88
g20
I1
sg12
g21
sg14
I0
sg22
I1
sg11
I132
sg15
I12
sba(i__main__
Instruction
p89
(dp90
g20
I3
sg45
I0
sg12
g46
sg22
I4
sg47
I34
sg48
I4
sg11
I136
sg15
I0
sba(i__main__
Instruction
p91
(dp92
g20
I4
sg12
g21
sg14
I0
sg22
I6
sg11
I140
sg15
I35
sba(i__main__
Instruction
p93
(dp94
g20
I7
sg45
I0
sg12
g46
sg22
I6
sg47
I34
sg48
I6
sg11
I144
sg15
I0
sba(i__main__
Instruction
p95
(dp96
g20
I6
sg45
I0
sg12
g46
sg22
I6
sg47
I33
sg48
I6
sg11
I148
sg15
I0
sba(i__main__
Instruction
p97
(dp98
g20
I6
sg45
I0
sg12
g46
sg22
I1
sg47
I32
sg48
I1
sg11
I152
sg15
I0
sba(i__main__
Instruction
p99
(dp100
g20
I3
sg12
g21
sg14
I1
sg22
I3
sg11
I156
sg15
I8
sba(i__main__
Instruction
p101
(dp102
g20
I3
sg12
g21
sg14
I20
sg22
I5
sg11
I160
sg15
I4
sba(i__main__
Instruction
p103
(dp104
g11
I164
sg12
g13
sg14
I136
sg15
I2
sbas.