(dp0
S'funcs'
p1
(dp2
S'@func2'
p3
I0
ssS'instructions'
p4
(lp5
(i__main__
Instruction
p6
(dp7
S'rt'
p8
I1
sS'iType'
p9
S'I'
p10
sS'addr'
p11
I5
sS'rs'
p12
I1
sS'pc'
p13
I0
sS'op'
p14
I9
sba(i__main__
Instruction
p15
(dp16
g8
I5
sg9
g10
sg11
I0
sg12
I5
sg13
I4
sg14
I12
sba(i__main__
Instruction
p17
(dp18
g8
I5
sg9
g10
sg11
I1
sg12
I5
sg13
I8
sg14
I8
sba(i__main__
Instruction
p19
(dp20
g13
I12
sg9
S'J'
p21
sg11
S'$@func3'
p22
sg14
I2
sbas.