(dp0
S'funcs'
p1
(dp2
S'@main'
p3
I0
sS'@func3'
p4
I20
ssS'instructions'
p5
(lp6
(i__main__
Instruction
p7
(dp8
S'rt'
p9
I1
sS'iType'
p10
S'I'
p11
sS'addr'
p12
I0
sS'rs'
p13
I1
sS'pc'
p14
I0
sS'op'
p15
I12
sba(i__main__
Instruction
p16
(dp17
g9
I1
sg10
g11
sg12
I10
sg13
I1
sg14
I4
sg15
I8
sba(i__main__
Instruction
p18
(dp19
g9
I3
sg10
g11
sg12
I0
sg13
I3
sg14
I8
sg15
I12
sba(i__main__
Instruction
p20
(dp21
g9
I3
sg10
g11
sg12
I1
sg13
I3
sg14
I12
sg15
I8
sba(i__main__
Instruction
p22
(dp23
g14
I16
sg10
S'J'
p24
sg12
S'$@func1'
p25
sg15
I2
sba(i__main__
Instruction
p26
(dp27
g9
I1
sg10
g11
sg12
I10
sg13
I1
sg14
I20
sg15
I10
sba(i__main__
Instruction
p28
(dp29
g9
I6
sg10
g11
sg12
I0
sg13
I6
sg14
I24
sg15
I12
sba(i__main__
Instruction
p30
(dp31
g9
I6
sg10
g11
sg12
I1
sg13
I6
sg14
I28
sg15
I8
sba(i__main__
Instruction
p32
(dp33
g9
I0
sg10
g11
sg12
I0
sg13
I0
sg14
I32
sg15
I44
sbas.