(dp0
S'funcs'
p1
(dp2
S'@main'
p3
I40
sS'@pow'
p4
I0
ssS'instructions'
p5
(lp6
(i__main__
Instruction
p7
(dp8
S'rt'
p9
I29
sS'iType'
p10
S'I'
p11
sS'addr'
p12
I4
sS'rs'
p13
I29
sS'pc'
p14
I0
sS'op'
p15
I9
sba(i__main__
Instruction
p16
(dp17
g9
I29
sg10
g11
sg12
I4
sg13
I30
sg14
I4
sg15
I43
sba(i__main__
Instruction
p18
(dp19
g9
I30
sg10
g11
sg12
I0
sg13
I29
sg14
I8
sg15
I13
sba(i__main__
Instruction
p20
(dp21
g9
I29
sg10
g11
sg12
I4
sg13
I29
sg14
I12
sg15
I9
sba(i__main__
Instruction
p22
(dp23
g9
I29
sg10
g11
sg12
I4
sg13
I31
sg14
I16
sg15
I43
sba(i__main__
Instruction
p24
(dp25
g9
I29
sg10
g11
sg12
I4
sg13
I29
sg14
I20
sg15
I9
sba(i__main__
Instruction
p26
(dp27
g9
I1
sg10
g11
sg12
I0
sg13
I1
sg14
I24
sg15
I12
sba(i__main__
Instruction
p28
(dp29
g9
I1
sg10
g11
sg12
I1
sg13
I1
sg14
I28
sg15
I13
sba(i__main__
Instruction
p30
(dp31
g9
I30
sg10
g11
sg12
I-8
sg13
I1
sg14
I32
sg15
I43
sba(i__main__
Instruction
p32
(dp33
g9
I30
sg10
g11
sg12
I-4
sg13
I1
sg14
I36
sg15
I35
sba(i__main__
Instruction
p34
(dp35
g9
I2
sg10
g11
sg12
I0
sg13
I2
sg14
I40
sg15
I12
sba(i__main__
Instruction
p36
(dp37
g9
I1
sg10
g11
sg12
I128
sg13
I2
sg14
I44
sg15
I4
sba(i__main__
Instruction
p38
(dp39
g9
I30
sg10
g11
sg12
I-8
sg13
I1
sg14
I48
sg15
I35
sba(i__main__
Instruction
p40
(dp41
g9
I29
sg10
g11
sg12
I4
sg13
I29
sg14
I52
sg15
I9
sba(i__main__
Instruction
p42
(dp43
g9
I29
sg10
g11
sg12
I4
sg13
I1
sg14
I56
sg15
I43
sba(i__main__
Instruction
p44
(dp45
g9
I30
sg10
g11
sg12
I0
sg13
I1
sg14
I60
sg15
I35
sba(i__main__
Instruction
p46
(dp47
g9
I29
sg10
g11
sg12
I4
sg13
I2
sg14
I64
sg15
I35
sba(i__main__
Instruction
p48
(dp49
g9
I29
sg10
g11
sg12
I4
sg13
I29
sg14
I68
sg15
I8
sba(i__main__
Instruction
p50
(dp51
g9
I2
sS'shamt'
p52
I0
sg10
S'R'
p53
sg13
I1
sS'funct'
p54
I33
sS'rd'
p55
I1
sg14
I72
sg15
I0
sba(i__main__
Instruction
p56
(dp57
g9
I30
sg10
g11
sg12
I-8
sg13
I1
sg14
I76
sg15
I43
sba(i__main__
Instruction
p58
(dp59
g9
I30
sg10
g11
sg12
I-4
sg13
I1
sg14
I80
sg15
I35
sba(i__main__
Instruction
p60
(dp61
g9
I29
sg10
g11
sg12
I4
sg13
I29
sg14
I84
sg15
I9
sba(i__main__
Instruction
p62
(dp63
g9
I29
sg10
g11
sg12
I4
sg13
I1
sg14
I88
sg15
I43
sba(i__main__
Instruction
p64
(dp65
g9
I1
sg10
g11
sg12
I0
sg13
I1
sg14
I92
sg15
I12
sba(i__main__
Instruction
p66
(dp67
g9
I1
sg10
g11
sg12
I1
sg13
I1
sg14
I96
sg15
I13
sba(i__main__
Instruction
p68
(dp69
g9
I29
sg10
g11
sg12
I4
sg13
I2
sg14
I100
sg15
I35
sba(i__main__
Instruction
p70
(dp71
g9
I29
sg10
g11
sg12
I4
sg13
I29
sg14
I104
sg15
I8
sba(i__main__
Instruction
p72
(dp73
g9
I1
sg52
I0
sg10
g53
sg13
I2
sg54
I34
sg55
I1
sg14
I108
sg15
I0
sba(i__main__
Instruction
p74
(dp75
g9
I30
sg10
g11
sg12
I-4
sg13
I1
sg14
I112
sg15
I43
sba(i__main__
Instruction
p76
(dp77
g14
I116
sg10
S'J'
p78
sg12
I40
sg15
I2
sba(i__main__
Instruction
p79
(dp80
g9
I30
sg10
g11
sg12
I-4
sg13
I1
sg14
I120
sg15
I35
sba(i__main__
Instruction
p81
(dp82
g9
I29
sg10
g11
sg12
I4
sg13
I31
sg14
I124
sg15
I35
sba(i__main__
Instruction
p83
(dp84
g9
I29
sg10
g11
sg12
I8
sg13
I4
sg14
I128
sg15
I35
sba(i__main__
Instruction
p85
(dp86
g9
I29
sg10
g11
sg12
I0
sg13
I30
sg14
I132
sg15
I13
sba(i__main__
Instruction
p87
(dp88
g9
I30
sg10
g11
sg12
I0
sg13
I4
sg14
I136
sg15
I13
sba(i__main__
Instruction
p89
(dp90
g52
I0
sg9
I0
sg10
g53
sg54
I8
sg13
I31
sg55
I0
sg14
I140
sg15
I0
sba(i__main__
Instruction
p91
(dp92
g9
I29
sg10
g11
sg12
I4
sg13
I29
sg14
I144
sg15
I9
sba(i__main__
Instruction
p93
(dp94
g9
I29
sg10
g11
sg12
I4
sg13
I30
sg14
I148
sg15
I43
sba(i__main__
Instruction
p95
(dp96
g9
I30
sg10
g11
sg12
I0
sg13
I29
sg14
I152
sg15
I13
sba(i__main__
Instruction
p97
(dp98
g9
I29
sg10
g11
sg12
I4
sg13
I29
sg14
I156
sg15
I9
sba(i__main__
Instruction
p99
(dp100
g9
I29
sg10
g11
sg12
I4
sg13
I31
sg14
I160
sg15
I43
sba(i__main__
Instruction
p101
(dp102
g9
I29
sg10
g11
sg12
I128
sg13
I29
sg14
I164
sg15
I9
sba(i__main__
Instruction
p103
(dp104
g9
I29
sg10
g11
sg12
I4
sg13
I29
sg14
I168
sg15
I9
sba(i__main__
Instruction
p105
(dp106
g9
I29
sg10
g11
sg12
I4
sg13
I29
sg14
I172
sg15
I9
sba(i__main__
Instruction
p107
(dp108
g9
I29
sg10
g11
sg12
I4
sg13
I29
sg14
I176
sg15
I9
sba(i__main__
Instruction
p109
(dp110
g9
I30
sg10
g11
sg12
I-140
sg13
I1
sg14
I180
sg15
I35
sba(i__main__
Instruction
p111
(dp112
g9
I29
sg10
g11
sg12
I4
sg13
I29
sg14
I184
sg15
I9
sba(i__main__
Instruction
p113
(dp114
g9
I29
sg10
g11
sg12
I4
sg13
I1
sg14
I188
sg15
I43
sba(i__main__
Instruction
p115
(dp116
g9
I30
sg10
g11
sg12
I-144
sg13
I1
sg14
I192
sg15
I35
sba(i__main__
Instruction
p117
(dp118
g9
I29
sg10
g11
sg12
I4
sg13
I2
sg14
I196
sg15
I35
sba(i__main__
Instruction
p119
(dp120
g9
I29
sg10
g11
sg12
I4
sg13
I29
sg14
I200
sg15
I8
sba(i__main__
Instruction
p121
(dp122
g9
I2
sg52
I0
sg10
g53
sg13
I1
sg54
I33
sg55
I1
sg14
I204
sg15
I0
sba(i__main__
Instruction
p123
(dp124
g9
I30
sg10
g11
sg12
I-148
sg13
I1
sg14
I208
sg15
I43
sba(i__main__
Instruction
p125
(dp126
g9
I30
sg10
g11
sg12
I-140
sg13
I1
sg14
I212
sg15
I35
sba(i__main__
Instruction
p127
(dp128
g9
I29
sg10
g11
sg12
I4
sg13
I29
sg14
I216
sg15
I9
sba(i__main__
Instruction
p129
(dp130
g9
I29
sg10
g11
sg12
I4
sg13
I1
sg14
I220
sg15
I43
sba(i__main__
Instruction
p131
(dp132
g9
I30
sg10
g11
sg12
I-144
sg13
I1
sg14
I224
sg15
I35
sba(i__main__
Instruction
p133
(dp134
g9
I29
sg10
g11
sg12
I4
sg13
I2
sg14
I228
sg15
I35
sba(i__main__
Instruction
p135
(dp136
g9
I29
sg10
g11
sg12
I4
sg13
I29
sg14
I232
sg15
I8
sba(i__main__
Instruction
p137
(dp138
g9
I1
sg52
I0
sg10
g53
sg13
I2
sg54
I34
sg55
I1
sg14
I236
sg15
I0
sba(i__main__
Instruction
p139
(dp140
g9
I2
sg10
g11
sg12
I0
sg13
I2
sg14
I240
sg15
I12
sba(i__main__
Instruction
p141
(dp142
g9
I1
sg10
g11
sg12
I280
sg13
I2
sg14
I244
sg15
I4
sba(i__main__
Instruction
p143
(dp144
g9
I30
sg10
g11
sg12
I-148
sg13
I1
sg14
I248
sg15
I35
sba(i__main__
Instruction
p145
(dp146
g14
I252
sg10
g78
sg12
I232
sg15
I2
sba(i__main__
Instruction
p147
(dp148
g9
I1
sg10
g11
sg12
I0
sg13
I1
sg14
I256
sg15
I12
sba(i__main__
Instruction
p149
(dp150
g9
I1
sg10
g11
sg12
I5
sg13
I1
sg14
I260
sg15
I13
sba(i__main__
Instruction
p151
(dp152
g9
I3
sg10
g11
sg12
I4
sg13
I1
sg14
I264
sg15
I10
sba(i__main__
Instruction
p153
(dp154
g9
I3
sg52
I0
sg10
g53
sg13
I30
sg54
I34
sg55
I30
sg14
I268
sg15
I0
sba(i__main__
Instruction
p155
(dp156
g9
I30
sg10
g11
sg12
I-12
sg13
I1
sg14
I272
sg15
I35
sba(i__main__
Instruction
p157
(dp158
g9
I3
sg52
I0
sg10
g53
sg13
I30
sg54
I32
sg55
I30
sg14
I276
sg15
I0
sba(i__main__
Instruction
p159
(dp160
g9
I30
sg10
g11
sg12
I-148
sg13
I1
sg14
I280
sg15
I43
sbas.