(dp0
S'funcs'
p1
(dp2
S'@pow'
p3
I0
ssS'instructions'
p4
(lp5
(i__main__
Instruction
p6
(dp7
S'rt'
p8
I29
sS'iType'
p9
S'I'
p10
sS'addr'
p11
I4
sS'rs'
p12
I29
sS'pc'
p13
I0
sS'op'
p14
I9
sba(i__main__
Instruction
p15
(dp16
g8
I29
sg9
g10
sg11
I4
sg12
I30
sg13
I4
sg14
I43
sba(i__main__
Instruction
p17
(dp18
g8
I30
sg9
g10
sg11
I0
sg12
I29
sg13
I8
sg14
I13
sba(i__main__
Instruction
p19
(dp20
g8
I29
sg9
g10
sg11
I4
sg12
I29
sg13
I12
sg14
I9
sba(i__main__
Instruction
p21
(dp22
g8
I29
sg9
g10
sg11
I4
sg12
I31
sg13
I16
sg14
I43
sba(i__main__
Instruction
p23
(dp24
g8
I29
sg9
g10
sg11
I4
sg12
I29
sg13
I20
sg14
I9
sba(i__main__
Instruction
p25
(dp26
g8
I1
sg9
g10
sg11
I0
sg12
I1
sg13
I24
sg14
I12
sba(i__main__
Instruction
p27
(dp28
g8
I1
sg9
g10
sg11
I1
sg12
I1
sg13
I28
sg14
I13
sba(i__main__
Instruction
p29
(dp30
g8
I30
sg9
g10
sg11
I-8
sg12
I1
sg13
I32
sg14
I43
sba(i__main__
Instruction
p31
(dp32
g8
I30
sg9
g10
sg11
I-4
sg12
I1
sg13
I36
sg14
I35
sba(i__main__
Instruction
p33
(dp34
g8
I2
sg9
g10
sg11
I0
sg12
I2
sg13
I40
sg14
I12
sbas.