(dp0
S'funcs'
p1
(dp2
S'@fun2'
p3
I0
ssS'instructions'
p4
(lp5
(i__main__
Instruction
p6
(dp7
S'rt'
p8
I0
sS'shamt'
p9
I0
sS'iType'
p10
S'R'
p11
sS'rs'
p12
I1
sS'funct'
p13
I32
sS'rd'
p14
I1
sS'pc'
p15
I0
sS'op'
p16
I0
sbas.