(dp0
S'funcs'
p1
(dp2
sS'instructions'
p3
(lp4
(i__main__
Instruction
p5
(dp6
S'rt'
p7
I29
sS'iType'
p8
S'I'
p9
sS'addr'
p10
I4
sS'rs'
p11
I29
sS'pc'
p12
I0
sS'op'
p13
I9
sba(i__main__
Instruction
p14
(dp15
g7
I29
sg8
g9
sg10
I4
sg11
I30
sg12
I4
sg13
I43
sba(i__main__
Instruction
p16
(dp17
g7
I30
sg8
g9
sg10
I0
sg11
I29
sg12
I8
sg13
I13
sba(i__main__
Instruction
p18
(dp19
g7
I29
sg8
g9
sg10
I4
sg11
I29
sg12
I12
sg13
I9
sba(i__main__
Instruction
p20
(dp21
g7
I29
sg8
g9
sg10
I4
sg11
I31
sg12
I16
sg13
I43
sba(i__main__
Instruction
p22
(dp23
g7
I29
sg8
g9
sg10
I4
sg11
I29
sg12
I20
sg13
I9
sba(i__main__
Instruction
p24
(dp25
g7
I29
sg8
g9
sg10
I4
sg11
I29
sg12
I24
sg13
I9
sba(i__main__
Instruction
p26
(dp27
g7
I1
sg8
g9
sg10
I0
sg11
I1
sg12
I28
sg13
I12
sba(i__main__
Instruction
p28
(dp29
g7
I1
sg8
g9
sg10
I10
sg11
I1
sg12
I32
sg13
I13
sba(i__main__
Instruction
p30
(dp31
g7
I30
sg8
g9
sg10
I-144
sg11
I1
sg12
I36
sg13
I43
sba(i__main__
Instruction
p32
(dp33
g7
I30
sg8
g9
sg10
I-140
sg11
I1
sg12
I40
sg13
I43
sba(i__main__
Instruction
p34
(dp35
g7
I30
sg8
g9
sg10
I-140
sg11
I1
sg12
I44
sg13
I35
sba(i__main__
Instruction
p36
(dp37
g7
I2
sg8
g9
sg10
I0
sg11
I2
sg12
I48
sg13
I12
sba(i__main__
Instruction
p38
(dp39
g7
I1
sg8
g9
sg10
I132
sg11
I2
sg12
I52
sg13
I4
sba(i__main__
Instruction
p40
(dp41
g7
I30
sg8
g9
sg10
I-140
sg11
I1
sg12
I56
sg13
I35
sba(i__main__
Instruction
p42
(dp43
g7
I29
sg8
g9
sg10
I4
sg11
I29
sg12
I60
sg13
I9
sba(i__main__
Instruction
p44
(dp45
g7
I29
sg8
g9
sg10
I4
sg11
I1
sg12
I64
sg13
I43
sba(i__main__
Instruction
p46
(dp47
g7
I1
sg8
g9
sg10
I0
sg11
I1
sg12
I68
sg13
I12
sba(i__main__
Instruction
p48
(dp49
g7
I1
sg8
g9
sg10
I1
sg11
I1
sg12
I72
sg13
I13
sba(i__main__
Instruction
p50
(dp51
g7
I29
sg8
g9
sg10
I4
sg11
I2
sg12
I76
sg13
I35
sba(i__main__
Instruction
p52
(dp53
g7
I29
sg8
g9
sg10
I4
sg11
I29
sg12
I80
sg13
I8
sba(i__main__
Instruction
p54
(dp55
g7
I1
sS'shamt'
p56
I0
sg8
S'R'
p57
sg11
I2
sS'funct'
p58
I34
sS'rd'
p59
I1
sg12
I84
sg13
I0
sba(i__main__
Instruction
p60
(dp61
g7
I30
sg8
g9
sg10
I-140
sg11
I1
sg12
I88
sg13
I43
sba(i__main__
Instruction
p62
(dp63
g7
I30
sg8
g9
sg10
I-144
sg11
I1
sg12
I92
sg13
I35
sba(i__main__
Instruction
p64
(dp65
g7
I29
sg8
g9
sg10
I4
sg11
I29
sg12
I96
sg13
I9
sba(i__main__
Instruction
p66
(dp67
g7
I29
sg8
g9
sg10
I4
sg11
I1
sg12
I100
sg13
I43
sba(i__main__
Instruction
p68
(dp69
g7
I1
sg8
g9
sg10
I0
sg11
I1
sg12
I104
sg13
I12
sba(i__main__
Instruction
p70
(dp71
g7
I1
sg8
g9
sg10
I1
sg11
I1
sg12
I108
sg13
I13
sba(i__main__
Instruction
p72
(dp73
g7
I29
sg8
g9
sg10
I4
sg11
I2
sg12
I112
sg13
I35
sba(i__main__
Instruction
p74
(dp75
g7
I29
sg8
g9
sg10
I4
sg11
I29
sg12
I116
sg13
I8
sba(i__main__
Instruction
p76
(dp77
g7
I2
sg56
I0
sg8
g57
sg11
I1
sg58
I32
sg59
I1
sg12
I120
sg13
I0
sba(i__main__
Instruction
p78
(dp79
g7
I30
sg8
g9
sg10
I-144
sg11
I1
sg12
I124
sg13
I43
sba(i__main__
Instruction
p80
(dp81
g12
I128
sg8
S'J'
p82
sg10
I44
sg13
I2
sba(i__main__
Instruction
p83
(dp84
g7
I30
sg8
g9
sg10
I-144
sg11
I1
sg12
I132
sg13
I35
sbas.